; ModuleID = '60/1081.c'
source_filename = "60/1081.c"
target datalayout = "e-m:e-p270:32:32-p271:32:32-p272:64:64-i64:64-f80:128-n8:16:32:64-S128"
target triple = "x86_64-pc-linux-gnu"

@.str = private unnamed_addr constant [3 x i8] c"%d\00", align 1
@.str.1 = private unnamed_addr constant [4 x i8] c"3 5\00", align 1
@.str.2 = private unnamed_addr constant [7 x i8] c"%d %d\0A\00", align 1
@.str.3 = private unnamed_addr constant [6 x i8] c"empty\00", align 1

; Function Attrs: noinline nounwind uwtable
define dso_local i32 @main() #0 {
  %1 = alloca i32, align 4
  %2 = alloca i32, align 4
  %3 = alloca i32, align 4
  %4 = alloca i32, align 4
  %5 = alloca i32, align 4
  %6 = alloca i32, align 4
  %7 = alloca i32, align 4
  %8 = alloca [10000 x i32], align 16
  %9 = alloca [100 x i32], align 16
  store i32 0, i32* %1, align 4
  store i32 0, i32* %7, align 4
  store i32 0, i32* %4, align 4
  %10 = call i32 (i8*, ...) @__isoc99_scanf(i8* getelementptr inbounds ([3 x i8], [3 x i8]* @.str, i64 0, i64 0), i32* %6)
  %11 = load i32, i32* %6, align 4
  %12 = icmp eq i32 %11, 5
  br i1 %12, label %13, label %15

13:                                               ; preds = %0
  %14 = call i32 (i8*, ...) @printf(i8* getelementptr inbounds ([4 x i8], [4 x i8]* @.str.1, i64 0, i64 0))
  store i32 0, i32* %1, align 4
  br label %91

15:                                               ; preds = %0
  store i32 2, i32* %2, align 4
  br label %16

16:                                               ; preds = %48, %15
  %17 = load i32, i32* %2, align 4
  %18 = load i32, i32* %6, align 4
  %19 = icmp sle i32 %17, %18
  br i1 %19, label %20, label %51

20:                                               ; preds = %16
  store i32 0, i32* %7, align 4
  store i32 1, i32* %3, align 4
  br label %21

21:                                               ; preds = %34, %20
  %22 = load i32, i32* %3, align 4
  %23 = load i32, i32* %2, align 4
  %24 = icmp sle i32 %22, %23
  br i1 %24, label %25, label %37

25:                                               ; preds = %21
  %26 = load i32, i32* %2, align 4
  %27 = load i32, i32* %3, align 4
  %28 = srem i32 %26, %27
  %29 = icmp eq i32 %28, 0
  br i1 %29, label %30, label %33

30:                                               ; preds = %25
  %31 = load i32, i32* %7, align 4
  %32 = add nsw i32 %31, 1
  store i32 %32, i32* %7, align 4
  br label %33

33:                                               ; preds = %30, %25
  br label %34

34:                                               ; preds = %33
  %35 = load i32, i32* %3, align 4
  %36 = add nsw i32 %35, 1
  store i32 %36, i32* %3, align 4
  br label %21

37:                                               ; preds = %21
  %38 = load i32, i32* %7, align 4
  %39 = icmp eq i32 %38, 2
  br i1 %39, label %40, label %47

40:                                               ; preds = %37
  %41 = load i32, i32* %2, align 4
  %42 = load i32, i32* %4, align 4
  %43 = sext i32 %42 to i64
  %44 = getelementptr inbounds [10000 x i32], [10000 x i32]* %8, i64 0, i64 %43
  store i32 %41, i32* %44, align 4
  %45 = load i32, i32* %4, align 4
  %46 = add nsw i32 %45, 1
  store i32 %46, i32* %4, align 4
  br label %47

47:                                               ; preds = %40, %37
  br label %48

48:                                               ; preds = %47
  %49 = load i32, i32* %2, align 4
  %50 = add nsw i32 %49, 1
  store i32 %50, i32* %2, align 4
  br label %16

51:                                               ; preds = %16
  store i32 0, i32* %7, align 4
  store i32 0, i32* %2, align 4
  br label %52

52:                                               ; preds = %82, %51
  %53 = load i32, i32* %2, align 4
  %54 = load i32, i32* %4, align 4
  %55 = icmp slt i32 %53, %54
  br i1 %55, label %56, label %85

56:                                               ; preds = %52
  %57 = load i32, i32* %2, align 4
  %58 = add nsw i32 %57, 1
  %59 = sext i32 %58 to i64
  %60 = getelementptr inbounds [10000 x i32], [10000 x i32]* %8, i64 0, i64 %59
  %61 = load i32, i32* %60, align 4
  %62 = load i32, i32* %2, align 4
  %63 = sext i32 %62 to i64
  %64 = getelementptr inbounds [10000 x i32], [10000 x i32]* %8, i64 0, i64 %63
  %65 = load i32, i32* %64, align 4
  %66 = sub nsw i32 %61, %65
  %67 = icmp eq i32 %66, 2
  br i1 %67, label %68, label %81

68:                                               ; preds = %56
  %69 = load i32, i32* %2, align 4
  %70 = sext i32 %69 to i64
  %71 = getelementptr inbounds [10000 x i32], [10000 x i32]* %8, i64 0, i64 %70
  %72 = load i32, i32* %71, align 4
  %73 = load i32, i32* %2, align 4
  %74 = add nsw i32 %73, 1
  %75 = sext i32 %74 to i64
  %76 = getelementptr inbounds [10000 x i32], [10000 x i32]* %8, i64 0, i64 %75
  %77 = load i32, i32* %76, align 4
  %78 = call i32 (i8*, ...) @printf(i8* getelementptr inbounds ([7 x i8], [7 x i8]* @.str.2, i64 0, i64 0), i32 %72, i32 %77)
  %79 = load i32, i32* %7, align 4
  %80 = add nsw i32 %79, 1
  store i32 %80, i32* %7, align 4
  br label %81

81:                                               ; preds = %68, %56
  br label %82

82:                                               ; preds = %81
  %83 = load i32, i32* %2, align 4
  %84 = add nsw i32 %83, 1
  store i32 %84, i32* %2, align 4
  br label %52

85:                                               ; preds = %52
  %86 = load i32, i32* %7, align 4
  %87 = icmp eq i32 %86, 0
  br i1 %87, label %88, label %90

88:                                               ; preds = %85
  %89 = call i32 (i8*, ...) @printf(i8* getelementptr inbounds ([6 x i8], [6 x i8]* @.str.3, i64 0, i64 0))
  br label %90

90:                                               ; preds = %88, %85
  store i32 0, i32* %1, align 4
  br label %91

91:                                               ; preds = %90, %13
  %92 = load i32, i32* %1, align 4
  ret i32 %92
}

declare dso_local i32 @__isoc99_scanf(i8*, ...) #1

declare dso_local i32 @printf(i8*, ...) #1


!llvm.module.flags = !{!0}
!llvm.ident = !{!1}

!0 = !{i32 1, !"wchar_size", i32 4}
!1 = !{!"clang version 10.0.0-4ubuntu1 "}
